target datalayout = "e-m:e-p270:32:32-p271:32:32-p272:64:64-i64:64-i128:128-f80:128-n8:16:32:64-S128"
target triple = "x86_64-unknown-linux-gnu"

%"class.QuantLib::FdmLinearOp" = type { ptr }
%"class.std::unique_ptr" = type { %"struct.std::__uniq_ptr_data" }
%"struct.std::__uniq_ptr_data" = type { %"class.std::__uniq_ptr_impl" }
%"class.std::__uniq_ptr_impl" = type { %"class.std::tuple" }
%"class.std::tuple" = type { %"struct.std::_Tuple_impl" }
%"struct.std::_Tuple_impl" = type { %"struct.std::_Head_base.1" }
%"struct.std::_Head_base.1" = type { ptr }
%"class.boost::detail::shared_count" = type { ptr }
%"class.QuantLib::Array" = type { %"class.std::unique_ptr", i64 }
%"class.QuantLib::FdmSquareRootFwdOp" = type { %"class.QuantLib::FdmLinearOpComposite", i64, double, double, double, i32, %"class.boost::shared_ptr", %"class.QuantLib::Array" }
%"class.QuantLib::FdmLinearOpComposite" = type { %"class.QuantLib::FdmLinearOp" }
%"class.boost::shared_ptr" = type { ptr, %"class.boost::detail::shared_count" }

; Function Attrs: mustprogress uwtable
define noundef double @_ZNK8QuantLib18FdmSquareRootFwdOp5zetapEm(ptr noundef nonnull align 8 dereferenceable(80) %this, i64 noundef %i) #4 align 2 {
entry:
  %this.addr = alloca ptr, align 8
  %i.addr = alloca i64, align 8
  store ptr %this, ptr %this.addr, align 8, !tbaa !3
  store i64 %i, ptr %i.addr, align 8, !tbaa !9
  %this1 = load ptr, ptr %this.addr, align 8
  %0 = load i64, ptr %i.addr, align 8, !tbaa !9
  %call = call noundef double @_ZNK8QuantLib18FdmSquareRootFwdOp1hEm(ptr noundef nonnull align 8 dereferenceable(80) %this1, i64 noundef %0)
  %1 = load i64, ptr %i.addr, align 8, !tbaa !9
  %sub = sub i64 %1, 1
  %call2 = call noundef double @_ZNK8QuantLib18FdmSquareRootFwdOp1hEm(ptr noundef nonnull align 8 dereferenceable(80) %this1, i64 noundef %sub)
  %2 = load i64, ptr %i.addr, align 8, !tbaa !9
  %call3 = call noundef double @_ZNK8QuantLib18FdmSquareRootFwdOp1hEm(ptr noundef nonnull align 8 dereferenceable(80) %this1, i64 noundef %2)
  %add = fadd double %call2, %call3
  %mul = fmul double %call, %add
  ret double %mul
}

; Function Attrs: mustprogress uwtable
define noundef double @_ZNK8QuantLib18FdmSquareRootFwdOp4zetaEm(ptr noundef nonnull align 8 dereferenceable(80) %this, i64 noundef %i) #4 align 2 {
entry:
  %this.addr = alloca ptr, align 8
  %i.addr = alloca i64, align 8
  store ptr %this, ptr %this.addr, align 8, !tbaa !3
  store i64 %i, ptr %i.addr, align 8, !tbaa !9
  %this1 = load ptr, ptr %this.addr, align 8
  %0 = load i64, ptr %i.addr, align 8, !tbaa !9
  %sub = sub i64 %0, 1
  %call = call noundef double @_ZNK8QuantLib18FdmSquareRootFwdOp1hEm(ptr noundef nonnull align 8 dereferenceable(80) %this1, i64 noundef %sub)
  %1 = load i64, ptr %i.addr, align 8, !tbaa !9
  %call2 = call noundef double @_ZNK8QuantLib18FdmSquareRootFwdOp1hEm(ptr noundef nonnull align 8 dereferenceable(80) %this1, i64 noundef %1)
  %mul = fmul double %call, %call2
  ret double %mul
}

; Function Attrs: mustprogress uwtable
define noundef double @_ZNK8QuantLib18FdmSquareRootFwdOp1hEm(ptr noundef nonnull align 8 dereferenceable(80) %this, i64 noundef %i) #4 align 2 {
entry:
  %this.addr = alloca ptr, align 8
  %i.addr = alloca i64, align 8
  store ptr %this, ptr %this.addr, align 8, !tbaa !3
  store i64 %i, ptr %i.addr, align 8, !tbaa !9
  %this1 = load ptr, ptr %this.addr, align 8
  %0 = load i64, ptr %i.addr, align 8, !tbaa !9
  %add = add i64 %0, 1
  %call = call noundef double @_ZNK8QuantLib18FdmSquareRootFwdOp1vEm(ptr noundef nonnull align 8 dereferenceable(80) %this1, i64 noundef %add)
  %1 = load i64, ptr %i.addr, align 8, !tbaa !9
  %call2 = call noundef double @_ZNK8QuantLib18FdmSquareRootFwdOp1vEm(ptr noundef nonnull align 8 dereferenceable(80) %this1, i64 noundef %1)
  %sub = fsub double %call, %call2
  ret double %sub
}

; Function Attrs: mustprogress uwtable
define noundef double @_ZNK8QuantLib18FdmSquareRootFwdOp5zetamEm(ptr noundef nonnull align 8 dereferenceable(80) %this, i64 noundef %i) #4 align 2 {
entry:
  %this.addr = alloca ptr, align 8
  %i.addr = alloca i64, align 8
  store ptr %this, ptr %this.addr, align 8, !tbaa !3
  store i64 %i, ptr %i.addr, align 8, !tbaa !9
  %this1 = load ptr, ptr %this.addr, align 8
  %0 = load i64, ptr %i.addr, align 8, !tbaa !9
  %sub = sub i64 %0, 1
  %call = call noundef double @_ZNK8QuantLib18FdmSquareRootFwdOp1hEm(ptr noundef nonnull align 8 dereferenceable(80) %this1, i64 noundef %sub)
  %1 = load i64, ptr %i.addr, align 8, !tbaa !9
  %sub2 = sub i64 %1, 1
  %call3 = call noundef double @_ZNK8QuantLib18FdmSquareRootFwdOp1hEm(ptr noundef nonnull align 8 dereferenceable(80) %this1, i64 noundef %sub2)
  %2 = load i64, ptr %i.addr, align 8, !tbaa !9
  %call4 = call noundef double @_ZNK8QuantLib18FdmSquareRootFwdOp1hEm(ptr noundef nonnull align 8 dereferenceable(80) %this1, i64 noundef %2)
  %add = fadd double %call3, %call4
  %mul = fmul double %call, %add
  ret double %mul
}

; Function Attrs: mustprogress uwtable
define void @_ZNK8QuantLib18FdmSquareRootFwdOp11getCoeffLogERdS1_S1_m(ptr noundef nonnull align 8 dereferenceable(80) %this, ptr noundef nonnull align 8 dereferenceable(8) %alpha, ptr noundef nonnull align 8 dereferenceable(8) %beta, ptr noundef nonnull align 8 dereferenceable(8) %gamma, i64 noundef %n) #4 align 2 {
entry:
  %this.addr = alloca ptr, align 8
  %alpha.addr = alloca ptr, align 8
  %beta.addr = alloca ptr, align 8
  %gamma.addr = alloca ptr, align 8
  %n.addr = alloca i64, align 8
  %mu = alloca double, align 8
  store ptr %this, ptr %this.addr, align 8, !tbaa !3
  store ptr %alpha, ptr %alpha.addr, align 8, !tbaa !3
  store ptr %beta, ptr %beta.addr, align 8, !tbaa !3
  store ptr %gamma, ptr %gamma.addr, align 8, !tbaa !3
  store i64 %n, ptr %n.addr, align 8, !tbaa !9
  %this1 = load ptr, ptr %this.addr, align 8
  call void @llvm.lifetime.start.p0(i64 8, ptr %mu) #3
  %kappa_ = getelementptr inbounds nuw %"class.QuantLib::FdmSquareRootFwdOp", ptr %this1, i32 0, i32 2
  %0 = load double, ptr %kappa_, align 8, !tbaa !28
  %fneg = fneg double %0
  %theta_ = getelementptr inbounds nuw %"class.QuantLib::FdmSquareRootFwdOp", ptr %this1, i32 0, i32 3
  %1 = load double, ptr %theta_, align 8, !tbaa !29
  %sigma_ = getelementptr inbounds nuw %"class.QuantLib::FdmSquareRootFwdOp", ptr %this1, i32 0, i32 4
  %2 = load double, ptr %sigma_, align 8, !tbaa !30
  %sigma_2 = getelementptr inbounds nuw %"class.QuantLib::FdmSquareRootFwdOp", ptr %this1, i32 0, i32 4
  %3 = load double, ptr %sigma_2, align 8, !tbaa !30
  %mul3 = fmul double %2, %3
  %div = fdiv double %mul3, 2.000000e+00
  %neg = fneg double %div
  %4 = call double @llvm.fmuladd.f64(double %fneg, double %1, double %neg)
  %5 = load i64, ptr %n.addr, align 8, !tbaa !9
  %call = call noundef double @_ZNK8QuantLib18FdmSquareRootFwdOp1vEm(ptr noundef nonnull align 8 dereferenceable(80) %this1, i64 noundef %5)
  %fneg4 = fneg double %call
  %call5 = call double @exp(double noundef %fneg4) #3, !tbaa !57
  %kappa_6 = getelementptr inbounds nuw %"class.QuantLib::FdmSquareRootFwdOp", ptr %this1, i32 0, i32 2
  %6 = load double, ptr %kappa_6, align 8, !tbaa !28
  %7 = call double @llvm.fmuladd.f64(double %4, double %call5, double %6)
  store double %7, ptr %mu, align 8, !tbaa !7
  %sigma_7 = getelementptr inbounds nuw %"class.QuantLib::FdmSquareRootFwdOp", ptr %this1, i32 0, i32 4
  %8 = load double, ptr %sigma_7, align 8, !tbaa !30
  %sigma_8 = getelementptr inbounds nuw %"class.QuantLib::FdmSquareRootFwdOp", ptr %this1, i32 0, i32 4
  %9 = load double, ptr %sigma_8, align 8, !tbaa !30
  %mul = fmul double %8, %9
  %10 = load i64, ptr %n.addr, align 8, !tbaa !9
  %call9 = call noundef double @_ZNK8QuantLib18FdmSquareRootFwdOp1vEm(ptr noundef nonnull align 8 dereferenceable(80) %this1, i64 noundef %10)
  %fneg10 = fneg double %call9
  %call11 = call double @exp(double noundef %fneg10) #3, !tbaa !57
  %mul12 = fmul double %mul, %call11
  %11 = load i64, ptr %n.addr, align 8, !tbaa !9
  %call13 = call noundef double @_ZNK8QuantLib18FdmSquareRootFwdOp5zetamEm(ptr noundef nonnull align 8 dereferenceable(80) %this1, i64 noundef %11)
  %div14 = fdiv double %mul12, %call13
  %12 = load double, ptr %mu, align 8, !tbaa !7
  %13 = load i64, ptr %n.addr, align 8, !tbaa !9
  %call15 = call noundef double @_ZNK8QuantLib18FdmSquareRootFwdOp1hEm(ptr noundef nonnull align 8 dereferenceable(80) %this1, i64 noundef %13)
  %mul16 = fmul double %12, %call15
  %14 = load i64, ptr %n.addr, align 8, !tbaa !9
  %call17 = call noundef double @_ZNK8QuantLib18FdmSquareRootFwdOp5zetamEm(ptr noundef nonnull align 8 dereferenceable(80) %this1, i64 noundef %14)
  %div18 = fdiv double %mul16, %call17
  %sub = fsub double %div14, %div18
  %15 = load ptr, ptr %alpha.addr, align 8, !tbaa !3
  store double %sub, ptr %15, align 8, !tbaa !7
  %sigma_19 = getelementptr inbounds nuw %"class.QuantLib::FdmSquareRootFwdOp", ptr %this1, i32 0, i32 4
  %16 = load double, ptr %sigma_19, align 8, !tbaa !30
  %fneg20 = fneg double %16
  %sigma_21 = getelementptr inbounds nuw %"class.QuantLib::FdmSquareRootFwdOp", ptr %this1, i32 0, i32 4
  %17 = load double, ptr %sigma_21, align 8, !tbaa !30
  %mul22 = fmul double %fneg20, %17
  %18 = load i64, ptr %n.addr, align 8, !tbaa !9
  %call23 = call noundef double @_ZNK8QuantLib18FdmSquareRootFwdOp1vEm(ptr noundef nonnull align 8 dereferenceable(80) %this1, i64 noundef %18)
  %fneg24 = fneg double %call23
  %call25 = call double @exp(double noundef %fneg24) #3, !tbaa !57
  %mul26 = fmul double %mul22, %call25
  %19 = load i64, ptr %n.addr, align 8, !tbaa !9
  %call27 = call noundef double @_ZNK8QuantLib18FdmSquareRootFwdOp4zetaEm(ptr noundef nonnull align 8 dereferenceable(80) %this1, i64 noundef %19)
  %div28 = fdiv double %mul26, %call27
  %20 = load double, ptr %mu, align 8, !tbaa !7
  %21 = load i64, ptr %n.addr, align 8, !tbaa !9
  %call29 = call noundef double @_ZNK8QuantLib18FdmSquareRootFwdOp1hEm(ptr noundef nonnull align 8 dereferenceable(80) %this1, i64 noundef %21)
  %22 = load i64, ptr %n.addr, align 8, !tbaa !9
  %sub30 = sub i64 %22, 1
  %call31 = call noundef double @_ZNK8QuantLib18FdmSquareRootFwdOp1hEm(ptr noundef nonnull align 8 dereferenceable(80) %this1, i64 noundef %sub30)
  %sub32 = fsub double %call29, %call31
  %mul33 = fmul double %20, %sub32
  %23 = load i64, ptr %n.addr, align 8, !tbaa !9
  %call34 = call noundef double @_ZNK8QuantLib18FdmSquareRootFwdOp4zetaEm(ptr noundef nonnull align 8 dereferenceable(80) %this1, i64 noundef %23)
  %div35 = fdiv double %mul33, %call34
  %add = fadd double %div28, %div35
  %kappa_36 = getelementptr inbounds nuw %"class.QuantLib::FdmSquareRootFwdOp", ptr %this1, i32 0, i32 2
  %24 = load double, ptr %kappa_36, align 8, !tbaa !28
  %theta_37 = getelementptr inbounds nuw %"class.QuantLib::FdmSquareRootFwdOp", ptr %this1, i32 0, i32 3
  %25 = load double, ptr %theta_37, align 8, !tbaa !29
  %mul38 = fmul double %24, %25
  %26 = load i64, ptr %n.addr, align 8, !tbaa !9
  %call39 = call noundef double @_ZNK8QuantLib18FdmSquareRootFwdOp1vEm(ptr noundef nonnull align 8 dereferenceable(80) %this1, i64 noundef %26)
  %fneg40 = fneg double %call39
  %call41 = call double @exp(double noundef %fneg40) #3, !tbaa !57
  %27 = call double @llvm.fmuladd.f64(double %mul38, double %call41, double %add)
  %28 = load ptr, ptr %beta.addr, align 8, !tbaa !3
  store double %27, ptr %28, align 8, !tbaa !7
  %sigma_43 = getelementptr inbounds nuw %"class.QuantLib::FdmSquareRootFwdOp", ptr %this1, i32 0, i32 4
  %29 = load double, ptr %sigma_43, align 8, !tbaa !30
  %sigma_44 = getelementptr inbounds nuw %"class.QuantLib::FdmSquareRootFwdOp", ptr %this1, i32 0, i32 4
  %30 = load double, ptr %sigma_44, align 8, !tbaa !30
  %mul45 = fmul double %29, %30
  %31 = load i64, ptr %n.addr, align 8, !tbaa !9
  %call46 = call noundef double @_ZNK8QuantLib18FdmSquareRootFwdOp1vEm(ptr noundef nonnull align 8 dereferenceable(80) %this1, i64 noundef %31)
  %fneg47 = fneg double %call46
  %call48 = call double @exp(double noundef %fneg47) #3, !tbaa !57
  %mul49 = fmul double %mul45, %call48
  %32 = load i64, ptr %n.addr, align 8, !tbaa !9
  %call50 = call noundef double @_ZNK8QuantLib18FdmSquareRootFwdOp5zetapEm(ptr noundef nonnull align 8 dereferenceable(80) %this1, i64 noundef %32)
  %div51 = fdiv double %mul49, %call50
  %33 = load double, ptr %mu, align 8, !tbaa !7
  %34 = load i64, ptr %n.addr, align 8, !tbaa !9
  %sub52 = sub i64 %34, 1
  %call53 = call noundef double @_ZNK8QuantLib18FdmSquareRootFwdOp1hEm(ptr noundef nonnull align 8 dereferenceable(80) %this1, i64 noundef %sub52)
  %mul54 = fmul double %33, %call53
  %35 = load i64, ptr %n.addr, align 8, !tbaa !9
  %call55 = call noundef double @_ZNK8QuantLib18FdmSquareRootFwdOp5zetapEm(ptr noundef nonnull align 8 dereferenceable(80) %this1, i64 noundef %35)
  %div56 = fdiv double %mul54, %call55
  %add57 = fadd double %div51, %div56
  %36 = load ptr, ptr %gamma.addr, align 8, !tbaa !3
  store double %add57, ptr %36, align 8, !tbaa !7
  call void @llvm.lifetime.end.p0(i64 8, ptr %mu) #3
  ret void
}