; Function Attrs: mustprogress uwtable
define void @_ZNK8QuantLib18FdmSquareRootFwdOp11getCoeffLogERdS1_S1_m(ptr nocapture noundef nonnull readonly align 8 dereferenceable(80) %this, ptr nocapture noundef nonnull writeonly align 8 dereferenceable(8) %alpha, ptr nocapture noundef nonnull writeonly align 8 dereferenceable(8) %beta, ptr nocapture noundef nonnull writeonly align 8 dereferenceable(8) %gamma, i64 noundef %n) local_unnamed_addr #3 align 2 {
entry:
  %kappa_ = getelementptr inbounds nuw i8, ptr %this, i64 16
  %0 = load double, ptr %kappa_, align 8, !tbaa !24
  %fneg = fneg double %0
  %theta_ = getelementptr inbounds nuw i8, ptr %this, i64 24
  %1 = load double, ptr %theta_, align 8, !tbaa !25
  %sigma_ = getelementptr inbounds nuw i8, ptr %this, i64 32
  %2 = load double, ptr %sigma_, align 8, !tbaa !26
  %mul3 = fmul double %2, %2
  %neg = fmul double %mul3, -5.000000e-01
  %3 = tail call double @llvm.fmuladd.f64(double %fneg, double %1, double %neg)
  %call = tail call noundef double @_ZNK8QuantLib18FdmSquareRootFwdOp1vEm(ptr noundef nonnull align 8 dereferenceable(80) %this, i64 noundef %n)
  %fneg4 = fneg double %call
  %call5 = tail call double @exp(double noundef %fneg4) #25, !tbaa !80
  %4 = load double, ptr %kappa_, align 8, !tbaa !24
  %5 = tail call double @llvm.fmuladd.f64(double %3, double %call5, double %4)
  %6 = load double, ptr %sigma_, align 8, !tbaa !26
  %mul = fmul double %6, %6
  %call9 = tail call noundef double @_ZNK8QuantLib18FdmSquareRootFwdOp1vEm(ptr noundef nonnull align 8 dereferenceable(80) %this, i64 noundef %n)
  %fneg10 = fneg double %call9
  %call11 = tail call double @exp(double noundef %fneg10) #25, !tbaa !80
  %mul12 = fmul double %mul, %call11
  %sub.i = add i64 %n, -1
  %call.i.i = tail call noundef double @_ZNK8QuantLib18FdmSquareRootFwdOp1vEm(ptr noundef nonnull readonly align 8 dereferenceable(80) %this, i64 noundef %n)
  %call2.i.i = tail call noundef double @_ZNK8QuantLib18FdmSquareRootFwdOp1vEm(ptr noundef nonnull readonly align 8 dereferenceable(80) %this, i64 noundef %sub.i)
  %sub.i.i = fsub double %call.i.i, %call2.i.i
  %call.i3.i = tail call noundef double @_ZNK8QuantLib18FdmSquareRootFwdOp1vEm(ptr noundef nonnull readonly align 8 dereferenceable(80) %this, i64 noundef %n)
  %call2.i4.i = tail call noundef double @_ZNK8QuantLib18FdmSquareRootFwdOp1vEm(ptr noundef nonnull readonly align 8 dereferenceable(80) %this, i64 noundef %sub.i)
  %sub.i5.i = fsub double %call.i3.i, %call2.i4.i
  %add.i.i = add i64 %n, 1
  %call.i6.i = tail call noundef double @_ZNK8QuantLib18FdmSquareRootFwdOp1vEm(ptr noundef nonnull readonly align 8 dereferenceable(80) %this, i64 noundef %add.i.i)
  %call2.i7.i = tail call noundef double @_ZNK8QuantLib18FdmSquareRootFwdOp1vEm(ptr noundef nonnull readonly align 8 dereferenceable(80) %this, i64 noundef %n)
  %sub.i8.i = fsub double %call.i6.i, %call2.i7.i
  %add.i = fadd double %sub.i5.i, %sub.i8.i
  %mul.i = fmul double %sub.i.i, %add.i
  %div14 = fdiv double %mul12, %mul.i
  %call.i = tail call noundef double @_ZNK8QuantLib18FdmSquareRootFwdOp1vEm(ptr noundef nonnull readonly align 8 dereferenceable(80) %this, i64 noundef %add.i.i)
  %call2.i = tail call noundef double @_ZNK8QuantLib18FdmSquareRootFwdOp1vEm(ptr noundef nonnull readonly align 8 dereferenceable(80) %this, i64 noundef %n)
  %sub.i18 = fsub double %call.i, %call2.i
  %mul16 = fmul double %5, %sub.i18
  %call.i.i20 = tail call noundef double @_ZNK8QuantLib18FdmSquareRootFwdOp1vEm(ptr noundef nonnull readonly align 8 dereferenceable(80) %this, i64 noundef %n)
  %call2.i.i21 = tail call noundef double @_ZNK8QuantLib18FdmSquareRootFwdOp1vEm(ptr noundef nonnull readonly align 8 dereferenceable(80) %this, i64 noundef %sub.i)
  %sub.i.i22 = fsub double %call.i.i20, %call2.i.i21
  %call.i3.i23 = tail call noundef double @_ZNK8QuantLib18FdmSquareRootFwdOp1vEm(ptr noundef nonnull readonly align 8 dereferenceable(80) %this, i64 noundef %n)
  %call2.i4.i24 = tail call noundef double @_ZNK8QuantLib18FdmSquareRootFwdOp1vEm(ptr noundef nonnull readonly align 8 dereferenceable(80) %this, i64 noundef %sub.i)
  %sub.i5.i25 = fsub double %call.i3.i23, %call2.i4.i24
  %call.i6.i27 = tail call noundef double @_ZNK8QuantLib18FdmSquareRootFwdOp1vEm(ptr noundef nonnull readonly align 8 dereferenceable(80) %this, i64 noundef %add.i.i)
  %call2.i7.i28 = tail call noundef double @_ZNK8QuantLib18FdmSquareRootFwdOp1vEm(ptr noundef nonnull readonly align 8 dereferenceable(80) %this, i64 noundef %n)
  %sub.i8.i29 = fsub double %call.i6.i27, %call2.i7.i28
  %add.i30 = fadd double %sub.i5.i25, %sub.i8.i29
  %mul.i31 = fmul double %sub.i.i22, %add.i30
  %div18 = fdiv double %mul16, %mul.i31
  %sub = fsub double %div14, %div18
  store double %sub, ptr %alpha, align 8, !tbaa !36
  %7 = load double, ptr %sigma_, align 8, !tbaa !26
  %fneg20 = fneg double %7
  %mul22 = fmul double %7, %fneg20
  %call23 = tail call noundef double @_ZNK8QuantLib18FdmSquareRootFwdOp1vEm(ptr noundef nonnull align 8 dereferenceable(80) %this, i64 noundef %n)
  %fneg24 = fneg double %call23
  %call25 = tail call double @exp(double noundef %fneg24) #25, !tbaa !80
  %mul26 = fmul double %mul22, %call25
  %call.i.i33 = tail call noundef double @_ZNK8QuantLib18FdmSquareRootFwdOp1vEm(ptr noundef nonnull readonly align 8 dereferenceable(80) %this, i64 noundef %n)
  %call2.i.i34 = tail call noundef double @_ZNK8QuantLib18FdmSquareRootFwdOp1vEm(ptr noundef nonnull readonly align 8 dereferenceable(80) %this, i64 noundef %sub.i)
  %sub.i.i35 = fsub double %call.i.i33, %call2.i.i34
  %call.i2.i = tail call noundef double @_ZNK8QuantLib18FdmSquareRootFwdOp1vEm(ptr noundef nonnull readonly align 8 dereferenceable(80) %this, i64 noundef %add.i.i)
  %call2.i3.i = tail call noundef double @_ZNK8QuantLib18FdmSquareRootFwdOp1vEm(ptr noundef nonnull readonly align 8 dereferenceable(80) %this, i64 noundef %n)
  %sub.i4.i = fsub double %call.i2.i, %call2.i3.i
  %mul.i37 = fmul double %sub.i.i35, %sub.i4.i
  %div28 = fdiv double %mul26, %mul.i37
  %call.i39 = tail call noundef double @_ZNK8QuantLib18FdmSquareRootFwdOp1vEm(ptr noundef nonnull readonly align 8 dereferenceable(80) %this, i64 noundef %add.i.i)
  %call2.i40 = tail call noundef double @_ZNK8QuantLib18FdmSquareRootFwdOp1vEm(ptr noundef nonnull readonly align 8 dereferenceable(80) %this, i64 noundef %n)
  %sub.i41 = fsub double %call.i39, %call2.i40
  %call.i43 = tail call noundef double @_ZNK8QuantLib18FdmSquareRootFwdOp1vEm(ptr noundef nonnull readonly align 8 dereferenceable(80) %this, i64 noundef %n)
  %call2.i44 = tail call noundef double @_ZNK8QuantLib18FdmSquareRootFwdOp1vEm(ptr noundef nonnull readonly align 8 dereferenceable(80) %this, i64 noundef %sub.i)
  %sub.i45 = fsub double %call.i43, %call2.i44
  %sub32 = fsub double %sub.i41, %sub.i45
  %mul33 = fmul double %5, %sub32
  %call.i.i47 = tail call noundef double @_ZNK8QuantLib18FdmSquareRootFwdOp1vEm(ptr noundef nonnull readonly align 8 dereferenceable(80) %this, i64 noundef %n)
  %call2.i.i48 = tail call noundef double @_ZNK8QuantLib18FdmSquareRootFwdOp1vEm(ptr noundef nonnull readonly align 8 dereferenceable(80) %this, i64 noundef %sub.i)
  %sub.i.i49 = fsub double %call.i.i47, %call2.i.i48
  %call.i2.i51 = tail call noundef double @_ZNK8QuantLib18FdmSquareRootFwdOp1vEm(ptr noundef nonnull readonly align 8 dereferenceable(80) %this, i64 noundef %add.i.i)
  %call2.i3.i52 = tail call noundef double @_ZNK8QuantLib18FdmSquareRootFwdOp1vEm(ptr noundef nonnull readonly align 8 dereferenceable(80) %this, i64 noundef %n)
  %sub.i4.i53 = fsub double %call.i2.i51, %call2.i3.i52
  %mul.i54 = fmul double %sub.i.i49, %sub.i4.i53
  %div35 = fdiv double %mul33, %mul.i54
  %add = fadd double %div28, %div35
  %8 = load double, ptr %kappa_, align 8, !tbaa !24
  %9 = load double, ptr %theta_, align 8, !tbaa !25
  %mul38 = fmul double %8, %9
  %call39 = tail call noundef double @_ZNK8QuantLib18FdmSquareRootFwdOp1vEm(ptr noundef nonnull align 8 dereferenceable(80) %this, i64 noundef %n)
  %fneg40 = fneg double %call39
  %call41 = tail call double @exp(double noundef %fneg40) #25, !tbaa !80
  %10 = tail call double @llvm.fmuladd.f64(double %mul38, double %call41, double %add)
  store double %10, ptr %beta, align 8, !tbaa !36
  %11 = load double, ptr %sigma_, align 8, !tbaa !26
  %mul45 = fmul double %11, %11
  %call46 = tail call noundef double @_ZNK8QuantLib18FdmSquareRootFwdOp1vEm(ptr noundef nonnull align 8 dereferenceable(80) %this, i64 noundef %n)
  %fneg47 = fneg double %call46
  %call48 = tail call double @exp(double noundef %fneg47) #25, !tbaa !80
  %mul49 = fmul double %mul45, %call48
  %call.i.i56 = tail call noundef double @_ZNK8QuantLib18FdmSquareRootFwdOp1vEm(ptr noundef nonnull readonly align 8 dereferenceable(80) %this, i64 noundef %add.i.i)
  %call2.i.i57 = tail call noundef double @_ZNK8QuantLib18FdmSquareRootFwdOp1vEm(ptr noundef nonnull readonly align 8 dereferenceable(80) %this, i64 noundef %n)
  %sub.i.i58 = fsub double %call.i.i56, %call2.i.i57
  %call.i4.i = tail call noundef double @_ZNK8QuantLib18FdmSquareRootFwdOp1vEm(ptr noundef nonnull readonly align 8 dereferenceable(80) %this, i64 noundef %n)
  %call2.i5.i = tail call noundef double @_ZNK8QuantLib18FdmSquareRootFwdOp1vEm(ptr noundef nonnull readonly align 8 dereferenceable(80) %this, i64 noundef %sub.i)
  %sub.i6.i = fsub double %call.i4.i, %call2.i5.i
  %call.i8.i = tail call noundef double @_ZNK8QuantLib18FdmSquareRootFwdOp1vEm(ptr noundef nonnull readonly align 8 dereferenceable(80) %this, i64 noundef %add.i.i)
  %call2.i9.i = tail call noundef double @_ZNK8QuantLib18FdmSquareRootFwdOp1vEm(ptr noundef nonnull readonly align 8 dereferenceable(80) %this, i64 noundef %n)
  %sub.i10.i = fsub double %call.i8.i, %call2.i9.i
  %add.i60 = fadd double %sub.i6.i, %sub.i10.i
  %mul.i61 = fmul double %sub.i.i58, %add.i60
  %div51 = fdiv double %mul49, %mul.i61
  %call.i63 = tail call noundef double @_ZNK8QuantLib18FdmSquareRootFwdOp1vEm(ptr noundef nonnull readonly align 8 dereferenceable(80) %this, i64 noundef %n)
  %call2.i64 = tail call noundef double @_ZNK8QuantLib18FdmSquareRootFwdOp1vEm(ptr noundef nonnull readonly align 8 dereferenceable(80) %this, i64 noundef %sub.i)
  %sub.i65 = fsub double %call.i63, %call2.i64
  %mul54 = fmul double %5, %sub.i65
  %call.i.i67 = tail call noundef double @_ZNK8QuantLib18FdmSquareRootFwdOp1vEm(ptr noundef nonnull readonly align 8 dereferenceable(80) %this, i64 noundef %add.i.i)
  %call2.i.i68 = tail call noundef double @_ZNK8QuantLib18FdmSquareRootFwdOp1vEm(ptr noundef nonnull readonly align 8 dereferenceable(80) %this, i64 noundef %n)
  %sub.i.i69 = fsub double %call.i.i67, %call2.i.i68
  %call.i4.i71 = tail call noundef double @_ZNK8QuantLib18FdmSquareRootFwdOp1vEm(ptr noundef nonnull readonly align 8 dereferenceable(80) %this, i64 noundef %n)
  %call2.i5.i72 = tail call noundef double @_ZNK8QuantLib18FdmSquareRootFwdOp1vEm(ptr noundef nonnull readonly align 8 dereferenceable(80) %this, i64 noundef %sub.i)
  %sub.i6.i73 = fsub double %call.i4.i71, %call2.i5.i72
  %call.i8.i74 = tail call noundef double @_ZNK8QuantLib18FdmSquareRootFwdOp1vEm(ptr noundef nonnull readonly align 8 dereferenceable(80) %this, i64 noundef %add.i.i)
  %call2.i9.i75 = tail call noundef double @_ZNK8QuantLib18FdmSquareRootFwdOp1vEm(ptr noundef nonnull readonly align 8 dereferenceable(80) %this, i64 noundef %n)
  %sub.i10.i76 = fsub double %call.i8.i74, %call2.i9.i75
  %add.i77 = fadd double %sub.i6.i73, %sub.i10.i76
  %mul.i78 = fmul double %sub.i.i69, %add.i77
  %div56 = fdiv double %mul54, %mul.i78
  %add57 = fadd double %div51, %div56
  store double %add57, ptr %gamma, align 8, !tbaa !36
  ret void
}